target datalayout = "e-m:e-p270:32:32-p271:32:32-p272:64:64-i64:64-i128:128-f80:128-n8:16:32:64-S128"
target triple = "x86_64-pc-linux-gnu"

@__const._blend_Lab_scale.scale = private unnamed_addr constant [4 x float] [float 0x3F847AE140000000, float 7.812500e-03, float 7.812500e-03, float 1.000000e+00], align 16
@__const._blend_Lab_rescale.scale = private unnamed_addr constant [4 x float] [float 1.000000e+02, float 1.280000e+02, float 1.280000e+02, float 1.000000e+00], align 16

; Function Attrs: inlinehint nounwind uwtable
define internal void @_blend_Lab_rescale(ptr noundef %0, ptr noundef %1) #2 {
  %3 = alloca ptr, align 8
  %4 = alloca ptr, align 8
  %5 = alloca [4 x float], align 16
  %6 = alloca i64, align 8
  store ptr %0, ptr %3, align 8, !tbaa !11
  store ptr %1, ptr %4, align 8, !tbaa !11
  call void @llvm.lifetime.start.p0(i64 16, ptr %5) #8
  call void @llvm.memcpy.p0.p0.i64(ptr align 16 %5, ptr align 16 @__const._blend_Lab_rescale.scale, i64 16, i1 false)
  call void @llvm.lifetime.start.p0(i64 8, ptr %6) #8
  store i64 0, ptr %6, align 8, !tbaa !43
  br label %7

7:                                                ; preds = %23, %2
  %8 = load i64, ptr %6, align 8, !tbaa !43
  %9 = icmp ult i64 %8, 4
  br i1 %9, label %11, label %10

10:                                               ; preds = %7
  call void @llvm.lifetime.end.p0(i64 8, ptr %6) #8
  br label %26

11:                                               ; preds = %7
  %12 = load ptr, ptr %3, align 8, !tbaa !11
  %13 = load i64, ptr %6, align 8, !tbaa !43
  %14 = getelementptr inbounds nuw float, ptr %12, i64 %13
  %15 = load float, ptr %14, align 4, !tbaa !45
  %16 = load i64, ptr %6, align 8, !tbaa !43
  %17 = getelementptr inbounds nuw [4 x float], ptr %5, i64 0, i64 %16
  %18 = load float, ptr %17, align 4, !tbaa !45
  %19 = fmul reassoc nsz arcp contract afn float %15, %18
  %20 = load ptr, ptr %4, align 8, !tbaa !11
  %21 = load i64, ptr %6, align 8, !tbaa !43
  %22 = getelementptr inbounds nuw float, ptr %20, i64 %21
  store float %19, ptr %22, align 4, !tbaa !45
  br label %23

23:                                               ; preds = %11
  %24 = load i64, ptr %6, align 8, !tbaa !43
  %25 = add i64 %24, 1
  store i64 %25, ptr %6, align 8, !tbaa !43
  br label %7

26:                                               ; preds = %10
  call void @llvm.lifetime.end.p0(i64 16, ptr %5) #8
  ret void
}

; Function Attrs: inlinehint nounwind uwtable
define internal void @dt_LCH_2_Lab(ptr noundef %0, ptr noundef %1) #2 {
  %3 = alloca ptr, align 8
  %4 = alloca ptr, align 8
  store ptr %0, ptr %3, align 8, !tbaa !11
  store ptr %1, ptr %4, align 8, !tbaa !11
  %5 = load ptr, ptr %3, align 8, !tbaa !11
  %6 = getelementptr inbounds float, ptr %5, i64 0
  %7 = load float, ptr %6, align 4, !tbaa !45
  %8 = load ptr, ptr %4, align 8, !tbaa !11
  %9 = getelementptr inbounds float, ptr %8, i64 0
  store float %7, ptr %9, align 4, !tbaa !45
  %10 = load ptr, ptr %3, align 8, !tbaa !11
  %11 = getelementptr inbounds float, ptr %10, i64 2
  %12 = load float, ptr %11, align 4, !tbaa !45
  %13 = fmul reassoc nsz arcp contract afn float 0x401921FB60000000, %12
  %14 = call reassoc nsz arcp contract afn float @llvm.cos.f32(float %13)
  %15 = load ptr, ptr %3, align 8, !tbaa !11
  %16 = getelementptr inbounds float, ptr %15, i64 1
  %17 = load float, ptr %16, align 4, !tbaa !45
  %18 = fmul reassoc nsz arcp contract afn float %14, %17
  %19 = load ptr, ptr %4, align 8, !tbaa !11
  %20 = getelementptr inbounds float, ptr %19, i64 1
  store float %18, ptr %20, align 4, !tbaa !45
  %21 = load ptr, ptr %3, align 8, !tbaa !11
  %22 = getelementptr inbounds float, ptr %21, i64 2
  %23 = load float, ptr %22, align 4, !tbaa !45
  %24 = fmul reassoc nsz arcp contract afn float 0x401921FB60000000, %23
  %25 = call reassoc nsz arcp contract afn float @llvm.sin.f32(float %24)
  %26 = load ptr, ptr %3, align 8, !tbaa !11
  %27 = getelementptr inbounds float, ptr %26, i64 1
  %28 = load float, ptr %27, align 4, !tbaa !45
  %29 = fmul reassoc nsz arcp contract afn float %25, %28
  %30 = load ptr, ptr %4, align 8, !tbaa !11
  %31 = getelementptr inbounds float, ptr %30, i64 2
  store float %29, ptr %31, align 4, !tbaa !45
  ret void
}

; Function Attrs: inlinehint nounwind uwtable
define internal void @dt_Lab_2_LCH(ptr noundef %0, ptr noundef %1) #2 {
  %3 = alloca ptr, align 8
  %4 = alloca ptr, align 8
  %5 = alloca float, align 4
  store ptr %0, ptr %3, align 8, !tbaa !11
  store ptr %1, ptr %4, align 8, !tbaa !11
  call void @llvm.lifetime.start.p0(i64 4, ptr %5) #8
  %6 = load ptr, ptr %3, align 8, !tbaa !11
  %7 = getelementptr inbounds float, ptr %6, i64 2
  %8 = load float, ptr %7, align 4, !tbaa !45
  %9 = load ptr, ptr %3, align 8, !tbaa !11
  %10 = getelementptr inbounds float, ptr %9, i64 1
  %11 = load float, ptr %10, align 4, !tbaa !45
  %12 = call reassoc nsz arcp contract afn float @llvm.atan2.f32(float %8, float %11)
  store float %12, ptr %5, align 4, !tbaa !45
  %13 = load float, ptr %5, align 4, !tbaa !45
  %14 = fcmp reassoc nsz arcp contract afn ogt float %13, 0.000000e+00
  br i1 %14, label %15, label %18

15:                                               ; preds = %2
  %16 = load float, ptr %5, align 4, !tbaa !45
  %17 = fdiv reassoc nsz arcp contract afn float %16, 0x401921FB60000000
  store float %17, ptr %5, align 4, !tbaa !45
  br label %23

18:                                               ; preds = %2
  %19 = load float, ptr %5, align 4, !tbaa !45
  %20 = call reassoc nsz arcp contract afn float @llvm.fabs.f32(float %19)
  %21 = fdiv reassoc nsz arcp contract afn float %20, 0x401921FB60000000
  %22 = fsub reassoc nsz arcp contract afn float 1.000000e+00, %21
  store float %22, ptr %5, align 4, !tbaa !45
  br label %23

23:                                               ; preds = %18, %15
  %24 = load ptr, ptr %3, align 8, !tbaa !11
  %25 = getelementptr inbounds float, ptr %24, i64 0
  %26 = load float, ptr %25, align 4, !tbaa !45
  %27 = load ptr, ptr %4, align 8, !tbaa !11
  %28 = getelementptr inbounds float, ptr %27, i64 0
  store float %26, ptr %28, align 4, !tbaa !45
  %29 = load ptr, ptr %3, align 8, !tbaa !11
  %30 = getelementptr inbounds float, ptr %29, i64 1
  %31 = load float, ptr %30, align 4, !tbaa !45
  %32 = load ptr, ptr %3, align 8, !tbaa !11
  %33 = getelementptr inbounds float, ptr %32, i64 2
  %34 = load float, ptr %33, align 4, !tbaa !45
  %35 = call reassoc nsz arcp contract afn float @hypotf(float noundef %31, float noundef %34) #12
  %36 = load ptr, ptr %4, align 8, !tbaa !11
  %37 = getelementptr inbounds float, ptr %36, i64 1
  store float %35, ptr %37, align 4, !tbaa !45
  %38 = load float, ptr %5, align 4, !tbaa !45
  %39 = load ptr, ptr %4, align 8, !tbaa !11
  %40 = getelementptr inbounds float, ptr %39, i64 2
  store float %38, ptr %40, align 4, !tbaa !45
  call void @llvm.lifetime.end.p0(i64 4, ptr %5) #8
  ret void
}

; Function Attrs: inlinehint nounwind uwtable
define internal void @_CLAMP_XYZ(ptr noundef %0, ptr noundef %1, ptr noundef %2) #2 {
  %4 = alloca ptr, align 8
  %5 = alloca ptr, align 8
  %6 = alloca ptr, align 8
  %7 = alloca i64, align 8
  store ptr %0, ptr %4, align 8, !tbaa !11
  store ptr %1, ptr %5, align 8, !tbaa !11
  store ptr %2, ptr %6, align 8, !tbaa !11
  call void @llvm.lifetime.start.p0(i64 8, ptr %7) #8
  store i64 0, ptr %7, align 8, !tbaa !43
  br label %8

8:                                                ; preds = %30, %3
  %9 = load i64, ptr %7, align 8, !tbaa !43
  %10 = icmp ult i64 %9, 4
  br i1 %10, label %12, label %11

11:                                               ; preds = %8
  call void @llvm.lifetime.end.p0(i64 8, ptr %7) #8
  br label %33

12:                                               ; preds = %8
  %13 = load ptr, ptr %4, align 8, !tbaa !11
  %14 = load i64, ptr %7, align 8, !tbaa !43
  %15 = getelementptr inbounds nuw float, ptr %13, i64 %14
  %16 = load float, ptr %15, align 4, !tbaa !45
  %17 = load ptr, ptr %5, align 8, !tbaa !11
  %18 = load i64, ptr %7, align 8, !tbaa !43
  %19 = getelementptr inbounds nuw float, ptr %17, i64 %18
  %20 = load float, ptr %19, align 4, !tbaa !45
  %21 = call reassoc nsz arcp contract afn float @llvm.maxnum.f32(float %16, float %20)
  %22 = load ptr, ptr %6, align 8, !tbaa !11
  %23 = load i64, ptr %7, align 8, !tbaa !43
  %24 = getelementptr inbounds nuw float, ptr %22, i64 %23
  %25 = load float, ptr %24, align 4, !tbaa !45
  %26 = call reassoc nsz arcp contract afn float @llvm.minnum.f32(float %21, float %25)
  %27 = load ptr, ptr %4, align 8, !tbaa !11
  %28 = load i64, ptr %7, align 8, !tbaa !43
  %29 = getelementptr inbounds nuw float, ptr %27, i64 %28
  store float %26, ptr %29, align 4, !tbaa !45
  br label %30

30:                                               ; preds = %12
  %31 = load i64, ptr %7, align 8, !tbaa !43
  %32 = add i64 %31, 1
  store i64 %32, ptr %7, align 8, !tbaa !43
  br label %8

33:                                               ; preds = %11
  ret void
}

; Function Attrs: inlinehint nounwind uwtable
define internal void @_blend_Lab_scale(ptr noundef %0, ptr noundef %1) #2 {
  %3 = alloca ptr, align 8
  %4 = alloca ptr, align 8
  %5 = alloca [4 x float], align 16
  %6 = alloca i64, align 8
  store ptr %0, ptr %3, align 8, !tbaa !11
  store ptr %1, ptr %4, align 8, !tbaa !11
  call void @llvm.lifetime.start.p0(i64 16, ptr %5) #8
  call void @llvm.memcpy.p0.p0.i64(ptr align 16 %5, ptr align 16 @__const._blend_Lab_scale.scale, i64 16, i1 false)
  call void @llvm.lifetime.start.p0(i64 8, ptr %6) #8
  store i64 0, ptr %6, align 8, !tbaa !43
  br label %7

7:                                                ; preds = %23, %2
  %8 = load i64, ptr %6, align 8, !tbaa !43
  %9 = icmp ult i64 %8, 4
  br i1 %9, label %11, label %10

10:                                               ; preds = %7
  call void @llvm.lifetime.end.p0(i64 8, ptr %6) #8
  br label %26

11:                                               ; preds = %7
  %12 = load ptr, ptr %3, align 8, !tbaa !11
  %13 = load i64, ptr %6, align 8, !tbaa !43
  %14 = getelementptr inbounds nuw float, ptr %12, i64 %13
  %15 = load float, ptr %14, align 4, !tbaa !45
  %16 = load i64, ptr %6, align 8, !tbaa !43
  %17 = getelementptr inbounds nuw [4 x float], ptr %5, i64 0, i64 %16
  %18 = load float, ptr %17, align 4, !tbaa !45
  %19 = fmul reassoc nsz arcp contract afn float %15, %18
  %20 = load ptr, ptr %4, align 8, !tbaa !11
  %21 = load i64, ptr %6, align 8, !tbaa !43
  %22 = getelementptr inbounds nuw float, ptr %20, i64 %21
  store float %19, ptr %22, align 4, !tbaa !45
  br label %23

23:                                               ; preds = %11
  %24 = load i64, ptr %6, align 8, !tbaa !43
  %25 = add i64 %24, 1
  store i64 %25, ptr %6, align 8, !tbaa !43
  br label %7

26:                                               ; preds = %10
  call void @llvm.lifetime.end.p0(i64 16, ptr %5) #8
  ret void
}

; Function Attrs: nounwind uwtable
define internal void @_blend_chromaticity(ptr noundef %0, ptr noundef %1, ptr noundef %2, ptr noalias noundef %3, i64 noundef %4, ptr noundef %5, ptr noundef %6) #0 {
  %8 = alloca ptr, align 8
  %9 = alloca ptr, align 8
  %10 = alloca ptr, align 8
  %11 = alloca ptr, align 8
  %12 = alloca i64, align 8
  %13 = alloca ptr, align 8
  %14 = alloca ptr, align 8
  %15 = alloca i64, align 8
  %16 = alloca i64, align 8
  %17 = alloca float, align 4
  %18 = alloca [4 x float], align 16
  %19 = alloca [4 x float], align 16
  %20 = alloca [4 x float], align 16
  %21 = alloca [4 x float], align 16
  store ptr %0, ptr %8, align 8, !tbaa !11
  store ptr %1, ptr %9, align 8, !tbaa !11
  store ptr %2, ptr %10, align 8, !tbaa !11
  store ptr %3, ptr %11, align 8, !tbaa !11
  store i64 %4, ptr %12, align 8, !tbaa !43
  store ptr %5, ptr %13, align 8, !tbaa !11
  store ptr %6, ptr %14, align 8, !tbaa !11
  call void @llvm.lifetime.start.p0(i64 8, ptr %15) #8
  store i64 0, ptr %15, align 8, !tbaa !43
  call void @llvm.lifetime.start.p0(i64 8, ptr %16) #8
  store i64 0, ptr %16, align 8, !tbaa !43
  br label %22

22:                                               ; preds = %81, %7
  %23 = load i64, ptr %15, align 8, !tbaa !43
  %24 = load i64, ptr %12, align 8, !tbaa !43
  %25 = icmp ult i64 %23, %24
  br i1 %25, label %27, label %26

26:                                               ; preds = %22
  call void @llvm.lifetime.end.p0(i64 8, ptr %16) #8
  call void @llvm.lifetime.end.p0(i64 8, ptr %15) #8
  br label %86

27:                                               ; preds = %22
  call void @llvm.lifetime.start.p0(i64 4, ptr %17) #8
  %28 = load ptr, ptr %11, align 8, !tbaa !11
  %29 = load i64, ptr %15, align 8, !tbaa !43
  %30 = getelementptr inbounds nuw float, ptr %28, i64 %29
  %31 = load float, ptr %30, align 4, !tbaa !45
  store float %31, ptr %17, align 4, !tbaa !45
  call void @llvm.lifetime.start.p0(i64 16, ptr %18) #8
  call void @llvm.lifetime.start.p0(i64 16, ptr %19) #8
  call void @llvm.lifetime.start.p0(i64 16, ptr %20) #8
  call void @llvm.lifetime.start.p0(i64 16, ptr %21) #8
  %32 = load ptr, ptr %8, align 8, !tbaa !11
  %33 = load i64, ptr %16, align 8, !tbaa !43
  %34 = getelementptr inbounds nuw float, ptr %32, i64 %33
  %35 = getelementptr inbounds [4 x float], ptr %18, i64 0, i64 0
  call void @_blend_Lab_scale(ptr noundef %34, ptr noundef %35)
  %36 = getelementptr inbounds [4 x float], ptr %18, i64 0, i64 0
  %37 = load ptr, ptr %13, align 8, !tbaa !11
  %38 = load ptr, ptr %14, align 8, !tbaa !11
  call void @_CLAMP_XYZ(ptr noundef %36, ptr noundef %37, ptr noundef %38)
  %39 = getelementptr inbounds [4 x float], ptr %18, i64 0, i64 0
  %40 = getelementptr inbounds [4 x float], ptr %20, i64 0, i64 0
  call void @dt_Lab_2_LCH(ptr noundef %39, ptr noundef %40)
  %41 = load ptr, ptr %9, align 8, !tbaa !11
  %42 = load i64, ptr %16, align 8, !tbaa !43
  %43 = getelementptr inbounds nuw float, ptr %41, i64 %42
  %44 = getelementptr inbounds [4 x float], ptr %19, i64 0, i64 0
  call void @_blend_Lab_scale(ptr noundef %43, ptr noundef %44)
  %45 = getelementptr inbounds [4 x float], ptr %19, i64 0, i64 0
  %46 = load ptr, ptr %13, align 8, !tbaa !11
  %47 = load ptr, ptr %14, align 8, !tbaa !11
  call void @_CLAMP_XYZ(ptr noundef %45, ptr noundef %46, ptr noundef %47)
  %48 = getelementptr inbounds [4 x float], ptr %19, i64 0, i64 0
  %49 = getelementptr inbounds [4 x float], ptr %21, i64 0, i64 0
  call void @dt_Lab_2_LCH(ptr noundef %48, ptr noundef %49)
  %50 = getelementptr inbounds [4 x float], ptr %20, i64 0, i64 0
  %51 = load float, ptr %50, align 16, !tbaa !45
  %52 = getelementptr inbounds [4 x float], ptr %21, i64 0, i64 0
  store float %51, ptr %52, align 16, !tbaa !45
  %53 = getelementptr inbounds [4 x float], ptr %20, i64 0, i64 1
  %54 = load float, ptr %53, align 4, !tbaa !45
  %55 = load float, ptr %17, align 4, !tbaa !45
  %56 = fsub reassoc nsz arcp contract afn float 1.000000e+00, %55
  %57 = fmul reassoc nsz arcp contract afn float %54, %56
  %58 = getelementptr inbounds [4 x float], ptr %21, i64 0, i64 1
  %59 = load float, ptr %58, align 4, !tbaa !45
  %60 = load float, ptr %17, align 4, !tbaa !45
  %61 = fmul reassoc nsz arcp contract afn float %59, %60
  %62 = fadd reassoc nsz arcp contract afn float %57, %61
  %63 = getelementptr inbounds [4 x float], ptr %21, i64 0, i64 1
  store float %62, ptr %63, align 4, !tbaa !45
  %64 = getelementptr inbounds [4 x float], ptr %20, i64 0, i64 2
  %65 = load float, ptr %64, align 8, !tbaa !45
  %66 = getelementptr inbounds [4 x float], ptr %21, i64 0, i64 2
  store float %65, ptr %66, align 8, !tbaa !45
  %67 = getelementptr inbounds [4 x float], ptr %21, i64 0, i64 0
  %68 = getelementptr inbounds [4 x float], ptr %19, i64 0, i64 0
  call void @dt_LCH_2_Lab(ptr noundef %67, ptr noundef %68)
  %69 = getelementptr inbounds [4 x float], ptr %19, i64 0, i64 0
  %70 = load ptr, ptr %13, align 8, !tbaa !11
  %71 = load ptr, ptr %14, align 8, !tbaa !11
  call void @_CLAMP_XYZ(ptr noundef %69, ptr noundef %70, ptr noundef %71)
  %72 = getelementptr inbounds [4 x float], ptr %19, i64 0, i64 0
  %73 = load ptr, ptr %10, align 8, !tbaa !11
  %74 = load i64, ptr %16, align 8, !tbaa !43
  %75 = getelementptr inbounds nuw float, ptr %73, i64 %74
  call void @_blend_Lab_rescale(ptr noundef %72, ptr noundef %75)
  %76 = load float, ptr %17, align 4, !tbaa !45
  %77 = load ptr, ptr %10, align 8, !tbaa !11
  %78 = load i64, ptr %16, align 8, !tbaa !43
  %79 = add i64 %78, 3
  %80 = getelementptr inbounds nuw float, ptr %77, i64 %79
  store float %76, ptr %80, align 4, !tbaa !45
  call void @llvm.lifetime.end.p0(i64 16, ptr %21) #8
  call void @llvm.lifetime.end.p0(i64 16, ptr %20) #8
  call void @llvm.lifetime.end.p0(i64 16, ptr %19) #8
  call void @llvm.lifetime.end.p0(i64 16, ptr %18) #8
  call void @llvm.lifetime.end.p0(i64 4, ptr %17) #8
  br label %81

81:                                               ; preds = %27
  %82 = load i64, ptr %15, align 8, !tbaa !43
  %83 = add i64 %82, 1
  store i64 %83, ptr %15, align 8, !tbaa !43
  %84 = load i64, ptr %16, align 8, !tbaa !43
  %85 = add i64 %84, 4
  store i64 %85, ptr %16, align 8, !tbaa !43
  br label %22

86:                                               ; preds = %26
  ret void
}