; Function Attrs: nofree nosync nounwind memory(argmem: readwrite) uwtable
define internal void @_blend_chromaticity(ptr noundef readonly captures(none) %0, ptr noundef readonly captures(none) %1, ptr noundef writeonly captures(none) %2, ptr noalias noundef readonly captures(none) %3, i64 noundef %4, ptr noundef readonly captures(none) %5, ptr noundef readonly captures(none) %6) unnamed_addr #12 {
  %8 = alloca [4 x float], align 16
  %9 = alloca [4 x float], align 16
  %.not = icmp eq i64 %4, 0
  br i1 %.not, label %._crit_edge, label %.lr.ph

.lr.ph:                                           ; preds = %7
  %10 = getelementptr inbounds nuw i8, ptr %8, i64 8
  %11 = getelementptr inbounds nuw i8, ptr %8, i64 4
  %12 = getelementptr inbounds nuw i8, ptr %9, i64 8
  %13 = getelementptr inbounds nuw i8, ptr %9, i64 4
  br label %14

._crit_edge:                                      ; preds = %_blend_Lab_rescale.exit, %7
  ret void

14:                                               ; preds = %.lr.ph, %_blend_Lab_rescale.exit
  %.042 = phi i64 [ 0, %.lr.ph ], [ %97, %_blend_Lab_rescale.exit ]
  %.02241 = phi i64 [ 0, %.lr.ph ], [ %98, %_blend_Lab_rescale.exit ]
  %15 = getelementptr inbounds nuw float, ptr %3, i64 %.042
  %16 = load float, ptr %15, align 4, !tbaa !36
  call void @llvm.lifetime.start.p0(i64 16, ptr nonnull %8) #8
  call void @llvm.lifetime.start.p0(i64 16, ptr nonnull %9) #8
  %17 = getelementptr inbounds nuw float, ptr %0, i64 %.02241
  br label %18

18:                                               ; preds = %18, %14
  %.06.i = phi i64 [ 0, %14 ], [ %25, %18 ]
  %19 = getelementptr inbounds nuw float, ptr %17, i64 %.06.i
  %20 = load float, ptr %19, align 4, !tbaa !36
  %21 = getelementptr inbounds nuw [4 x float], ptr @__const._blend_Lab_scale.scale, i64 0, i64 %.06.i
  %22 = load float, ptr %21, align 4, !tbaa !36
  %23 = fmul reassoc nsz arcp contract afn float %22, %20
  %24 = getelementptr inbounds nuw float, ptr %8, i64 %.06.i
  store float %23, ptr %24, align 4, !tbaa !36
  %25 = add nuw nsw i64 %.06.i, 1
  %exitcond.not.i = icmp eq i64 %25, 4
  br i1 %exitcond.not.i, label %_blend_Lab_scale.exit, label %18

_blend_Lab_scale.exit:                            ; preds = %18, %_blend_Lab_scale.exit
  %.09.i = phi i64 [ %34, %_blend_Lab_scale.exit ], [ 0, %18 ]
  %26 = getelementptr inbounds nuw float, ptr %8, i64 %.09.i
  %27 = load float, ptr %26, align 4, !tbaa !36
  %28 = getelementptr inbounds nuw float, ptr %5, i64 %.09.i
  %29 = load float, ptr %28, align 4, !tbaa !36
  %30 = tail call reassoc nsz arcp contract afn float @llvm.maxnum.f32(float %27, float %29)
  %31 = getelementptr inbounds nuw float, ptr %6, i64 %.09.i
  %32 = load float, ptr %31, align 4, !tbaa !36
  %33 = tail call reassoc nsz arcp contract afn float @llvm.minnum.f32(float %30, float %32)
  store float %33, ptr %26, align 4, !tbaa !36
  %34 = add nuw nsw i64 %.09.i, 1
  %exitcond.not.i23 = icmp eq i64 %34, 4
  br i1 %exitcond.not.i23, label %_CLAMP_XYZ.exit, label %_blend_Lab_scale.exit

_CLAMP_XYZ.exit:                                  ; preds = %_blend_Lab_scale.exit
  %35 = load float, ptr %10, align 8, !tbaa !36
  %36 = load float, ptr %11, align 4, !tbaa !36
  %37 = tail call reassoc nsz arcp contract afn float @llvm.atan2.f32(float %35, float %36)
  %38 = fcmp reassoc nsz arcp contract afn ogt float %37, 0.000000e+00
  br i1 %38, label %39, label %41

39:                                               ; preds = %_CLAMP_XYZ.exit
  %40 = fmul reassoc nsz arcp contract afn float %37, 0x3FC45F3060000000
  br label %dt_Lab_2_LCH.exit

41:                                               ; preds = %_CLAMP_XYZ.exit
  %42 = tail call reassoc nsz arcp contract afn float @llvm.fabs.f32(float %37)
  %43 = fmul reassoc nsz arcp contract afn float %42, 0x3FC45F3060000000
  %44 = fsub reassoc nsz arcp contract afn float 1.000000e+00, %43
  br label %dt_Lab_2_LCH.exit

dt_Lab_2_LCH.exit:                                ; preds = %39, %41
  %.0.i = phi nsz float [ %40, %39 ], [ %44, %41 ]
  %45 = load float, ptr %8, align 16, !tbaa !36
  %46 = getelementptr inbounds nuw float, ptr %1, i64 %.02241
  br label %47

47:                                               ; preds = %47, %dt_Lab_2_LCH.exit
  %.06.i24 = phi i64 [ 0, %dt_Lab_2_LCH.exit ], [ %54, %47 ]
  %48 = getelementptr inbounds nuw float, ptr %46, i64 %.06.i24
  %49 = load float, ptr %48, align 4, !tbaa !36
  %50 = getelementptr inbounds nuw [4 x float], ptr @__const._blend_Lab_scale.scale, i64 0, i64 %.06.i24
  %51 = load float, ptr %50, align 4, !tbaa !36
  %52 = fmul reassoc nsz arcp contract afn float %51, %49
  %53 = getelementptr inbounds nuw float, ptr %9, i64 %.06.i24
  store float %52, ptr %53, align 4, !tbaa !36
  %54 = add nuw nsw i64 %.06.i24, 1
  %exitcond.not.i25 = icmp eq i64 %54, 4
  br i1 %exitcond.not.i25, label %_blend_Lab_scale.exit26, label %47

_blend_Lab_scale.exit26:                          ; preds = %47, %_blend_Lab_scale.exit26
  %.09.i27 = phi i64 [ %63, %_blend_Lab_scale.exit26 ], [ 0, %47 ]
  %55 = getelementptr inbounds nuw float, ptr %9, i64 %.09.i27
  %56 = load float, ptr %55, align 4, !tbaa !36
  %57 = getelementptr inbounds nuw float, ptr %5, i64 %.09.i27
  %58 = load float, ptr %57, align 4, !tbaa !36
  %59 = tail call reassoc nsz arcp contract afn float @llvm.maxnum.f32(float %56, float %58)
  %60 = getelementptr inbounds nuw float, ptr %6, i64 %.09.i27
  %61 = load float, ptr %60, align 4, !tbaa !36
  %62 = tail call reassoc nsz arcp contract afn float @llvm.minnum.f32(float %59, float %61)
  store float %62, ptr %55, align 4, !tbaa !36
  %63 = add nuw nsw i64 %.09.i27, 1
  %exitcond.not.i28 = icmp eq i64 %63, 4
  br i1 %exitcond.not.i28, label %_CLAMP_XYZ.exit29, label %_blend_Lab_scale.exit26

_CLAMP_XYZ.exit29:                                ; preds = %_blend_Lab_scale.exit26
  %64 = tail call reassoc nsz arcp contract afn float @hypotf(float noundef %36, float noundef %35) #15
  %65 = load float, ptr %12, align 8, !tbaa !36
  %66 = load float, ptr %13, align 4, !tbaa !36
  %67 = tail call reassoc nsz arcp contract afn float @hypotf(float noundef %66, float noundef %65) #15
  %68 = fsub reassoc nsz arcp contract afn float %67, %64
  %69 = fmul reassoc nsz arcp contract afn float %68, %16
  %70 = fadd reassoc nsz arcp contract afn float %69, %64
  store float %45, ptr %9, align 16, !tbaa !36
  %71 = fmul reassoc nsz arcp contract afn float %.0.i, 0x401921FB60000000
  %72 = tail call reassoc nsz arcp contract afn float @llvm.cos.f32(float %71)
  %73 = fmul reassoc nsz arcp contract afn float %70, %72
  store float %73, ptr %13, align 4, !tbaa !36
  %74 = tail call reassoc nsz arcp contract afn float @llvm.sin.f32(float %71)
  %75 = fmul reassoc nsz arcp contract afn float %70, %74
  store float %75, ptr %12, align 8, !tbaa !36
  br label %76

76:                                               ; preds = %76, %_CLAMP_XYZ.exit29
  %.09.i32 = phi i64 [ 0, %_CLAMP_XYZ.exit29 ], [ %85, %76 ]
  %77 = getelementptr inbounds nuw float, ptr %9, i64 %.09.i32
  %78 = load float, ptr %77, align 4, !tbaa !36
  %79 = getelementptr inbounds nuw float, ptr %5, i64 %.09.i32
  %80 = load float, ptr %79, align 4, !tbaa !36
  %81 = tail call reassoc nsz arcp contract afn float @llvm.maxnum.f32(float %78, float %80)
  %82 = getelementptr inbounds nuw float, ptr %6, i64 %.09.i32
  %83 = load float, ptr %82, align 4, !tbaa !36
  %84 = tail call reassoc nsz arcp contract afn float @llvm.minnum.f32(float %81, float %83)
  store float %84, ptr %77, align 4, !tbaa !36
  %85 = add nuw nsw i64 %.09.i32, 1
  %exitcond.not.i33 = icmp eq i64 %85, 4
  br i1 %exitcond.not.i33, label %_CLAMP_XYZ.exit34, label %76

_CLAMP_XYZ.exit34:                                ; preds = %76
  %86 = getelementptr inbounds nuw float, ptr %2, i64 %.02241
  br label %87

87:                                               ; preds = %87, %_CLAMP_XYZ.exit34
  %.06.i35 = phi i64 [ 0, %_CLAMP_XYZ.exit34 ], [ %94, %87 ]
  %88 = getelementptr inbounds nuw float, ptr %9, i64 %.06.i35
  %89 = load float, ptr %88, align 4, !tbaa !36
  %90 = getelementptr inbounds nuw [4 x float], ptr @__const._blend_Lab_rescale.scale, i64 0, i64 %.06.i35
  %91 = load float, ptr %90, align 4, !tbaa !36
  %92 = fmul reassoc nsz arcp contract afn float %91, %89
  %93 = getelementptr inbounds nuw float, ptr %86, i64 %.06.i35
  store float %92, ptr %93, align 4, !tbaa !36
  %94 = add nuw nsw i64 %.06.i35, 1
  %exitcond.not.i36 = icmp eq i64 %94, 4
  br i1 %exitcond.not.i36, label %_blend_Lab_rescale.exit, label %87

_blend_Lab_rescale.exit:                          ; preds = %87
  %95 = or disjoint i64 %.02241, 3
  %96 = getelementptr inbounds nuw float, ptr %2, i64 %95
  store float %16, ptr %96, align 4, !tbaa !36
  call void @llvm.lifetime.end.p0(i64 16, ptr nonnull %9) #8
  call void @llvm.lifetime.end.p0(i64 16, ptr nonnull %8) #8
  %97 = add nuw i64 %.042, 1
  %98 = add i64 %.02241, 4
  %exitcond.not = icmp eq i64 %97, %4
  br i1 %exitcond.not, label %._crit_edge, label %14
}